(lp1
(imshc_lib
Request
p2
(dp3
S'first_name'
p4
VSam
p5
sS'last_name'
p6
VRedmond
p7
sS'additional'
p8
VNope
p9
sS'grade'
p10
I11
sS'challenge'
p11
VSome words
p12
sS'availability'
p13
Vavail
p14
sS'classes'
p15
(lp16
Vap_phys_b
p17
asS'time'
p18
F1378538121.206588
sS'requests'
p19
VRequest
p20
sS'pretty_time'
p21
S'Sat, Sep. 07, 2013 at 12:15:21 AM'
p22
sS'issue'
p23
Vtest
p24
sS'email'
p25
Vexample@menloschool.org
p26
sba.