(lp1
(imshc_lib
Request
p2
(dp3
S'pretty_time'
p4
S'Wed, Sep. 11, 2013 at 11:09:38 AM'
p5
sS'first_name'
p6
VS
sS'last_name'
p7
VR
sS'additional'
p8
Vs
sS'title'
p9
V
sS'grade'
p10
I11
sS'challenge'
p11
Vasdf
p12
sS'availability'
p13
Vs
sS'issue_str'
p14
S'homework'
p15
sS'classes'
p16
(lp17
Vap_phys_b
p18
asS'time'
p19
F1378922978
sS'requests'
p20
Vs
sS'pretty_classes'
p21
(lp22
S'AP Physics B'
p23
asS'issue'
p24
Vhw
p25
sS'email'
p26
Vbad@menloschool.org
p27
sba(imshc_lib
Request
p28
(dp29
g6
VS
sg7
VR
sg8
Vs
sg9
V
sg10
I11
sg11
Vasdf
p30
sg13
Vs
sg4
S'Wed, Sep. 11, 2013 at 11:09:25 AM'
p31
sg14
S'homework'
p32
sg16
(lp33
Vap_phys_b
p34
asg19
F1378922965
sg20
Vs
sg21
(lp35
S'AP Physics B'
p36
asg24
Vhw
p37
sg26
Vbad@menloschool.org
p38
sba(imshc_lib
Request
p39
(dp40
g6
VS
sg7
VR
sg8
Vs
sg9
V
sg10
I11
sg11
Vasdf
p41
sg13
Vs
sg4
S'Wed, Sep. 11, 2013 at 11:09:10 AM'
p42
sg14
S'homework'
p43
sg16
(lp44
Vap_phys_b
p45
asg19
F1378922950
sg20
Vs
sg21
(lp46
S'AP Physics B'
p47
asg24
Vhw
p48
sg26
Vbad@menloschool.org
p49
sba(imshc_lib
Request
p50
(dp51
g6
VS
sg7
VR
sg8
Vs
sg9
V
sg10
I11
sg11
Vasdf
p52
sg13
Vs
sg4
S'Wed, Sep. 11, 2013 at 11:09:05 AM'
p53
sg14
S'homework'
p54
sg16
(lp55
Vap_phys_b
p56
asg19
F1378922945
sg20
Vs
sg21
(lp57
S'AP Physics B'
p58
asg24
Vhw
p59
sg26
Vbad@menloschool.org
p60
sba(imshc_lib
Request
p61
(dp62
g6
VS
sg7
VR
sg8
Vs
sg9
V
sg10
I11
sg11
Vasdf
p63
sg13
Vs
sg4
S'Wed, Sep. 11, 2013 at 11:08:52 AM'
p64
sg14
S'homework'
p65
sg16
(lp66
Vap_phys_b
p67
asg19
F1378922932
sg20
Vs
sg21
(lp68
S'AP Physics B'
p69
asg24
Vhw
p70
sg26
Vbad@menloschool.org
p71
sba(imshc_lib
Request
p72
(dp73
g6
VS
sg7
VR
sg8
Vs
sg9
V
sg10
I11
sg11
Vasdf
p74
sg13
Vs
sg4
S'Wed, Sep. 11, 2013 at 11:08:42 AM'
p75
sg14
S'homework'
p76
sg16
(lp77
Vap_phys_b
p78
asg19
F1378922922
sg20
Vs
sg21
(lp79
S'AP Physics B'
p80
asg24
Vhw
p81
sg26
Vbad@menloschool.org
p82
sba(imshc_lib
Request
p83
(dp84
g6
VS
sg7
VR
sg8
Vs
sg9
V
sg10
I11
sg11
Vasdf
p85
sg13
Vs
sg4
S'Wed, Sep. 11, 2013 at 11:08:37 AM'
p86
sg14
S'homework'
p87
sg16
(lp88
Vap_phys_b
p89
asg19
F1378922917
sg20
Vs
sg21
(lp90
S'AP Physics B'
p91
asg24
Vhw
p92
sg26
Vbad@menloschool.org
p93
sba(imshc_lib
Request
p94
(dp95
g6
VS
sg7
VR
sg8
Vs
sg9
V
sg10
I11
sg11
Vasdf
p96
sg13
Vs
sg4
S'Wed, Sep. 11, 2013 at 11:06:38 AM'
p97
sg14
S'homework'
p98
sg16
(lp99
Vap_phys_b
p100
asg19
F1378922798
sg20
Vs
sg21
(lp101
S'AP Physics B'
p102
asg24
Vhw
p103
sg26
Vbad@menloschool.org
p104
sba(imshc_lib
Request
p105
(dp106
g6
VSomething
p107
sg7
VElse
p108
sg8
Vsdf
p109
sg9
VWeird
p110
sg10
I11
sg11
Vidk
p111
sg13
Vsdfj
p112
sg4
S'Wed, Sep. 11, 2013 at 11:06:22 AM'
p113
sg14
S'a test'
p114
sg16
(lp115
Vfresh_phys
p116
aVaccel_chem
p117
aVgeoh
p118
aVa2h
p119
aVpop
p120
aVasr
p121
aVbiotech
p122
aVeng1
p123
asg19
F1378922782
sg20
Vasdfo
p124
sg21
(lp125
S'Freshman Physics'
p126
aS'Accelerated Chemistry'
p127
aS'Analytic Geometry (H)'
p128
aS'Algebra 2 (H)'
p129
aS'Principles of Precalculus'
p130
aS'ASR (H)'
p131
aS'Biotechnology/Science Research'
p132
aS'Fundamentals of Engineering'
p133
asg24
Vtest
p134
sg26
Vidk@menloschool.org
p135
sba(imshc_lib
Request
p136
(dp137
g6
VSam
p138
sg7
VRedmond
p139
sg8
Vasdfa
p140
sg9
VWords
p141
sg10
I11
sg11
VSomething
p142
sg13
Vasdfasdf
p143
sg4
S'Wed, Sep. 11, 2013 at 11:03:47 AM'
p144
sg14
S'a test'
p145
sg16
(lp146
Vconc_chem
p147
aVa2
p148
asg19
F1378922627
sg20
Vasf
p149
sg21
(lp150
S'Conceptual Chemistry'
p151
aS'Algebra 2'
p152
asg24
Vtest
p153
sg26
Vsam.redmond@menloschool.org
p154
sba(imshc_lib
Request
p155
(dp156
g6
VSam
p157
sg7
VRedmond
p158
sg8
Vasdfa
p159
sg9
VWords
p160
sg10
I11
sg11
VSomething
p161
sg13
Vasdfasdf
p162
sg4
S'Wed, Sep. 11, 2013 at 11:03:27 AM'
p163
sg14
S'test'
p164
sg16
(lp165
Vconc_chem
p166
aVa2
p167
asg19
F1378922607
sg20
Vasf
p168
sg21
(lp169
S'Conceptual Chemistry'
p170
aS'Algebra 2'
p171
asg24
Vtest
p172
sg26
Vsam.redmond@menloschool.org
p173
sba.