(lp1
(imshc_lib
Message
p2
(dp3
S'content'
p4
VDerp
p5
sS'type'
p6
Vderp
p7
sS'title'
p8
VDerp
p9
sba(imshc_lib
Message
p10
(dp11
g4
Vsql injection! haha
p12
sg6
Vbug_report
p13
sg8
VI found an actual error
p14
sba(imshc_lib
Message
p15
(dp16
g4
Vsql injection! haha
p17
sg6
Vbug_report
p18
sg8
VI found an actual error
p19
sba(imshc_lib
Message
p20
(dp21
g4
Vjk love it
p22
sg6
Vdesign
p23
sg8
VYour Site SUCKS
p24
sba(imshc_lib
Message
p25
(dp26
g4
VGeneral
p27
sg6
Vgeneral
p28
sg8
VAnother Feedback
p29
sba(imshc_lib
Message
p30
(dp31
g4
VLol
p32
sg8
VMy second feedback!
p33
sba(imshc_lib
Message
p34
(dp35
g4
VAHH xss
p36
sg8
VSomething weird here
p37
sba(imshc_lib
Message
p38
(dp39
g4
VWoah there
p40
sg8
VAnother message
p41
sba(imshc_lib
Message
p42
(dp43
g4
VSome content
p44
sg8
VMy first feedback!
p45
sba.