(lp1
(imshc_lib
Message
p2
(dp3
S'content'
p4
VAHH xss
p5
sS'title'
p6
VSomething weird here
p7
sba(imshc_lib
Message
p8
(dp9
g4
VWoah there
p10
sg6
VAnother message
p11
sba(imshc_lib
Message
p12
(dp13
g4
VSome content
p14
sg6
VMy first feedback!
p15
sba.